; Function Attrs: mustprogress uwtable
define dso_local void @_ZNK6google8protobuf20ConformanceTestSuite25ConformanceRequestSetting11GetTestNameB5cxx11Ev(ptr noalias sret(%"class.std::__cxx11::basic_string") align 8 %agg.result, ptr noundef nonnull align 8 dereferenceable(136) %this) local_unnamed_addr #3 align 2 personality ptr @__gxx_personality_v0 {
entry:
  %rname = alloca %"class.std::__cxx11::basic_string", align 8
  %ref.tmp = alloca %"class.std::allocator", align 1
  %ref.tmp4 = alloca %"class.std::__cxx11::basic_string", align 8
  %ref.tmp7 = alloca %"class.std::__cxx11::basic_string", align 8
  %ref.tmp10 = alloca %"class.std::__cxx11::basic_string", align 8
  %prototype_message_ = getelementptr inbounds i8, ptr %this, i64 88
  %0 = load ptr, ptr %prototype_message_, align 8
  %vtable.i = load ptr, ptr %0, align 8
  %vfn.i = getelementptr inbounds i8, ptr %vtable.i, i64 152
  %1 = load ptr, ptr %vfn.i, align 8
  %call.i = tail call { ptr, ptr } %1(ptr noundef nonnull align 8 dereferenceable(16) %0)
  %2 = extractvalue { ptr, ptr } %call.i, 0
  %file_.i = getelementptr inbounds i8, ptr %2, i64 16
  %3 = load ptr, ptr %file_.i, align 8
  %syntax_.i = getelementptr inbounds i8, ptr %3, i64 60
  %4 = load i32, ptr %syntax_.i, align 4
  %cmp = icmp eq i32 %4, 3
  %.str.2..str.3 = select i1 %cmp, ptr @.str.2, ptr @.str.3
  call void @_ZNSaIcEC1Ev(ptr noundef nonnull align 1 dereferenceable(1) %ref.tmp) #18
  invoke void @_ZNSt7__cxx1112basic_stringIcSt11char_traitsIcESaIcEEC2IS3_EEPKcRKS3_(ptr noundef nonnull align 8 dereferenceable(32) %rname, ptr noundef nonnull %.str.2..str.3, ptr noundef nonnull align 1 dereferenceable(1) %ref.tmp)
          to label %invoke.cont unwind label %lpad

invoke.cont:                                      ; preds = %entry
  call void @_ZNSaIcED1Ev(ptr noundef nonnull align 1 dereferenceable(1) %ref.tmp) #18
  %level_ = getelementptr inbounds i8, ptr %this, i64 72
  %5 = load i32, ptr %level_, align 8
  invoke void @_ZNK6google8protobuf20ConformanceTestSuite25ConformanceRequestSetting24ConformanceLevelToStringB5cxx11ENS1_16ConformanceLevelE(ptr nonnull sret(%"class.std::__cxx11::basic_string") align 8 %ref.tmp4, ptr nonnull align 8 poison, i32 noundef %5)
          to label %invoke.cont6 unwind label %lpad5

invoke.cont6:                                     ; preds = %invoke.cont
  %input_format_ = getelementptr inbounds i8, ptr %this, i64 76
  %6 = load i32, ptr %input_format_, align 4
  %vtable = load ptr, ptr %this, align 8
  %vfn = getelementptr inbounds i8, ptr %vtable, i64 16
  %7 = load ptr, ptr %vfn, align 8
  invoke void %7(ptr nonnull sret(%"class.std::__cxx11::basic_string") align 8 %ref.tmp7, ptr noundef nonnull align 8 dereferenceable(136) %this, i32 noundef %6)
          to label %invoke.cont9 unwind label %lpad8

invoke.cont9:                                     ; preds = %invoke.cont6
  %output_format_ = getelementptr inbounds i8, ptr %this, i64 80
  %8 = load i32, ptr %output_format_, align 8
  %vtable11 = load ptr, ptr %this, align 8
  %vfn12 = getelementptr inbounds i8, ptr %vtable11, i64 24
  %9 = load ptr, ptr %vfn12, align 8
  invoke void %9(ptr nonnull sret(%"class.std::__cxx11::basic_string") align 8 %ref.tmp10, ptr noundef nonnull align 8 dereferenceable(136) %this, i32 noundef %8)
          to label %invoke.cont14 unwind label %lpad13

invoke.cont14:                                    ; preds = %invoke.cont9
  %test_name_ = getelementptr inbounds i8, ptr %this, i64 104
  invoke void @_ZN4absl6StrCatINSt7__cxx1112basic_stringIcSt11char_traitsIcESaIcEEEJA2_cS6_S7_S6_S7_S6_S7_S6_EEES6_RKT_DpRKT0_(ptr sret(%"class.std::__cxx11::basic_string") align 8 %agg.result, ptr noundef nonnull align 8 dereferenceable(32) %ref.tmp4, ptr noundef nonnull align 1 dereferenceable(2) @.str.4, ptr noundef nonnull align 8 dereferenceable(32) %rname, ptr noundef nonnull align 1 dereferenceable(2) @.str.4, ptr noundef nonnull align 8 dereferenceable(32) %ref.tmp7, ptr noundef nonnull align 1 dereferenceable(2) @.str.4, ptr noundef nonnull align 8 dereferenceable(32) %test_name_, ptr noundef nonnull align 1 dereferenceable(2) @.str.4, ptr noundef nonnull align 8 dereferenceable(32) %ref.tmp10)
          to label %invoke.cont16 unwind label %lpad15

invoke.cont16:                                    ; preds = %invoke.cont14
  %10 = load ptr, ptr %ref.tmp10, align 8
  %11 = getelementptr inbounds i8, ptr %ref.tmp10, i64 16
  %cmp.i.i.i = icmp eq ptr %10, %11
  br i1 %cmp.i.i.i, label %_ZNKSt7__cxx1112basic_stringIcSt11char_traitsIcESaIcEE11_M_is_localEv.exit.thread.i.i, label %if.then.i.i

_ZNKSt7__cxx1112basic_stringIcSt11char_traitsIcESaIcEE11_M_is_localEv.exit.thread.i.i: ; preds = %invoke.cont16
  %_M_string_length.i.i.i = getelementptr inbounds i8, ptr %ref.tmp10, i64 8
  %12 = load i64, ptr %_M_string_length.i.i.i, align 8
  %cmp3.i.i.i = icmp ult i64 %12, 16
  call void @llvm.assume(i1 %cmp3.i.i.i)
  br label %_ZNSt7__cxx1112basic_stringIcSt11char_traitsIcESaIcEED2Ev.exit

if.then.i.i:                                      ; preds = %invoke.cont16
  call void @_ZdlPv(ptr noundef %10) #21
  br label %_ZNSt7__cxx1112basic_stringIcSt11char_traitsIcESaIcEED2Ev.exit

_ZNSt7__cxx1112basic_stringIcSt11char_traitsIcESaIcEED2Ev.exit: ; preds = %_ZNKSt7__cxx1112basic_stringIcSt11char_traitsIcESaIcEE11_M_is_localEv.exit.thread.i.i, %if.then.i.i
  call void @_ZNSaIcED2Ev(ptr noundef nonnull align 1 dereferenceable(1) %ref.tmp10) #18
  %13 = load ptr, ptr %ref.tmp7, align 8
  %14 = getelementptr inbounds i8, ptr %ref.tmp7, i64 16
  %cmp.i.i.i5 = icmp eq ptr %13, %14
  br i1 %cmp.i.i.i5, label %_ZNKSt7__cxx1112basic_stringIcSt11char_traitsIcESaIcEE11_M_is_localEv.exit.thread.i.i7, label %if.then.i.i6

_ZNKSt7__cxx1112basic_stringIcSt11char_traitsIcESaIcEE11_M_is_localEv.exit.thread.i.i7: ; preds = %_ZNSt7__cxx1112basic_stringIcSt11char_traitsIcESaIcEED2Ev.exit
  %_M_string_length.i.i.i8 = getelementptr inbounds i8, ptr %ref.tmp7, i64 8
  %15 = load i64, ptr %_M_string_length.i.i.i8, align 8
  %cmp3.i.i.i9 = icmp ult i64 %15, 16
  call void @llvm.assume(i1 %cmp3.i.i.i9)
  br label %_ZNSt7__cxx1112basic_stringIcSt11char_traitsIcESaIcEED2Ev.exit10

if.then.i.i6:                                     ; preds = %_ZNSt7__cxx1112basic_stringIcSt11char_traitsIcESaIcEED2Ev.exit
  call void @_ZdlPv(ptr noundef %13) #21
  br label %_ZNSt7__cxx1112basic_stringIcSt11char_traitsIcESaIcEED2Ev.exit10

_ZNSt7__cxx1112basic_stringIcSt11char_traitsIcESaIcEED2Ev.exit10: ; preds = %_ZNKSt7__cxx1112basic_stringIcSt11char_traitsIcESaIcEE11_M_is_localEv.exit.thread.i.i7, %if.then.i.i6
  call void @_ZNSaIcED2Ev(ptr noundef nonnull align 1 dereferenceable(1) %ref.tmp7) #18
  %16 = load ptr, ptr %ref.tmp4, align 8
  %17 = getelementptr inbounds i8, ptr %ref.tmp4, i64 16
  %cmp.i.i.i11 = icmp eq ptr %16, %17
  br i1 %cmp.i.i.i11, label %_ZNKSt7__cxx1112basic_stringIcSt11char_traitsIcESaIcEE11_M_is_localEv.exit.thread.i.i13, label %if.then.i.i12

_ZNKSt7__cxx1112basic_stringIcSt11char_traitsIcESaIcEE11_M_is_localEv.exit.thread.i.i13: ; preds = %_ZNSt7__cxx1112basic_stringIcSt11char_traitsIcESaIcEED2Ev.exit10
  %_M_string_length.i.i.i14 = getelementptr inbounds i8, ptr %ref.tmp4, i64 8
  %18 = load i64, ptr %_M_string_length.i.i.i14, align 8
  %cmp3.i.i.i15 = icmp ult i64 %18, 16
  call void @llvm.assume(i1 %cmp3.i.i.i15)
  br label %_ZNSt7__cxx1112basic_stringIcSt11char_traitsIcESaIcEED2Ev.exit16

if.then.i.i12:                                    ; preds = %_ZNSt7__cxx1112basic_stringIcSt11char_traitsIcESaIcEED2Ev.exit10
  call void @_ZdlPv(ptr noundef %16) #21
  br label %_ZNSt7__cxx1112basic_stringIcSt11char_traitsIcESaIcEED2Ev.exit16

_ZNSt7__cxx1112basic_stringIcSt11char_traitsIcESaIcEED2Ev.exit16: ; preds = %_ZNKSt7__cxx1112basic_stringIcSt11char_traitsIcESaIcEE11_M_is_localEv.exit.thread.i.i13, %if.then.i.i12
  call void @_ZNSaIcED2Ev(ptr noundef nonnull align 1 dereferenceable(1) %ref.tmp4) #18
  %19 = load ptr, ptr %rname, align 8
  %20 = getelementptr inbounds i8, ptr %rname, i64 16
  %cmp.i.i.i17 = icmp eq ptr %19, %20
  br i1 %cmp.i.i.i17, label %_ZNKSt7__cxx1112basic_stringIcSt11char_traitsIcESaIcEE11_M_is_localEv.exit.thread.i.i19, label %if.then.i.i18

_ZNKSt7__cxx1112basic_stringIcSt11char_traitsIcESaIcEE11_M_is_localEv.exit.thread.i.i19: ; preds = %_ZNSt7__cxx1112basic_stringIcSt11char_traitsIcESaIcEED2Ev.exit16
  %_M_string_length.i.i.i20 = getelementptr inbounds i8, ptr %rname, i64 8
  %21 = load i64, ptr %_M_string_length.i.i.i20, align 8
  %cmp3.i.i.i21 = icmp ult i64 %21, 16
  call void @llvm.assume(i1 %cmp3.i.i.i21)
  br label %_ZNSt7__cxx1112basic_stringIcSt11char_traitsIcESaIcEED2Ev.exit22

if.then.i.i18:                                    ; preds = %_ZNSt7__cxx1112basic_stringIcSt11char_traitsIcESaIcEED2Ev.exit16
  call void @_ZdlPv(ptr noundef %19) #21
  br label %_ZNSt7__cxx1112basic_stringIcSt11char_traitsIcESaIcEED2Ev.exit22

_ZNSt7__cxx1112basic_stringIcSt11char_traitsIcESaIcEED2Ev.exit22: ; preds = %_ZNKSt7__cxx1112basic_stringIcSt11char_traitsIcESaIcEE11_M_is_localEv.exit.thread.i.i19, %if.then.i.i18
  call void @_ZNSaIcED2Ev(ptr noundef nonnull align 1 dereferenceable(1) %rname) #18
  ret void

lpad:                                             ; preds = %entry
  %22 = landingpad { ptr, i32 }
          cleanup
  call void @_ZNSaIcED1Ev(ptr noundef nonnull align 1 dereferenceable(1) %ref.tmp) #18
  br label %eh.resume

lpad5:                                            ; preds = %invoke.cont
  %23 = landingpad { ptr, i32 }
          cleanup
  br label %ehcleanup18

lpad8:                                            ; preds = %invoke.cont6
  %24 = landingpad { ptr, i32 }
          cleanup
  br label %ehcleanup17

lpad13:                                           ; preds = %invoke.cont9
  %25 = landingpad { ptr, i32 }
          cleanup
  br label %ehcleanup

lpad15:                                           ; preds = %invoke.cont14
  %26 = landingpad { ptr, i32 }
          cleanup
  call void @_ZNSt7__cxx1112basic_stringIcSt11char_traitsIcESaIcEED2Ev(ptr noundef nonnull align 8 dereferenceable(32) %ref.tmp10) #18
  br label %ehcleanup

ehcleanup:                                        ; preds = %lpad15, %lpad13
  %.pn = phi { ptr, i32 } [ %26, %lpad15 ], [ %25, %lpad13 ]
  call void @_ZNSt7__cxx1112basic_stringIcSt11char_traitsIcESaIcEED2Ev(ptr noundef nonnull align 8 dereferenceable(32) %ref.tmp7) #18
  br label %ehcleanup17

ehcleanup17:                                      ; preds = %ehcleanup, %lpad8
  %.pn.pn = phi { ptr, i32 } [ %.pn, %ehcleanup ], [ %24, %lpad8 ]
  call void @_ZNSt7__cxx1112basic_stringIcSt11char_traitsIcESaIcEED2Ev(ptr noundef nonnull align 8 dereferenceable(32) %ref.tmp4) #18
  br label %ehcleanup18

ehcleanup18:                                      ; preds = %ehcleanup17, %lpad5
  %.pn.pn.pn = phi { ptr, i32 } [ %.pn.pn, %ehcleanup17 ], [ %23, %lpad5 ]
  call void @_ZNSt7__cxx1112basic_stringIcSt11char_traitsIcESaIcEED2Ev(ptr noundef nonnull align 8 dereferenceable(32) %rname) #18
  br label %eh.resume

eh.resume:                                        ; preds = %ehcleanup18, %lpad
  %.pn.pn.pn.pn = phi { ptr, i32 } [ %.pn.pn.pn, %ehcleanup18 ], [ %22, %lpad ]
  resume { ptr, i32 } %.pn.pn.pn.pn
}